; Function Attrs: nounwind uwtable
define void @Acb_NtkTestRun2(ptr noundef readonly captures(none) %0, i32 noundef %1) local_unnamed_addr #0 {
  %3 = load ptr, ptr %0, align 8
  %4 = tail call ptr @Extra_FileNameGenericAppend(ptr noundef %3, ptr noundef nonnull @.str.138) #31
  %5 = load ptr, ptr %0, align 8
  %6 = getelementptr inbounds nuw i8, ptr %0, i64 16
  %7 = load ptr, ptr %6, align 8
  %8 = tail call ptr @Acb_VerilogSimpleRead(ptr noundef %5, ptr noundef %7)
  tail call void @Acb_VerilogSimpleWrite(ptr noundef %8, ptr noundef %4)
  %9 = load ptr, ptr %8, align 8
  tail call fastcc void @Acb_ManFree(ptr noundef %9)
  tail call void @Acb_IntallLibrary(i32 noundef 0)
  ret void
}